; ModuleID = '20/764.c'
source_filename = "20/764.c"
target datalayout = "e-m:e-p270:32:32-p271:32:32-p272:64:64-i64:64-f80:128-n8:16:32:64-S128"
target triple = "x86_64-pc-linux-gnu"

@.str = private unnamed_addr constant [4 x i8] c"%s\0A\00", align 1
@.str.1 = private unnamed_addr constant [5 x i8] c"%s%s\00", align 1

; Function Attrs: noinline nounwind uwtable
define dso_local void @insert(i8* %0, i8* %1) #0 {
  %3 = alloca i8*, align 8
  %4 = alloca i8*, align 8
  %5 = alloca i32, align 4
  %6 = alloca i32, align 4
  %7 = alloca i32, align 4
  %8 = alloca i32, align 4
  %9 = alloca [13 x i8], align 1
  store i8* %0, i8** %3, align 8
  store i8* %1, i8** %4, align 8
  store i32 0, i32* %6, align 4
  %10 = load i8*, i8** %3, align 8
  %11 = call i64 @strlen(i8* %10) #3
  %12 = trunc i64 %11 to i32
  store i32 %12, i32* %8, align 4
  store i32 1, i32* %5, align 4
  br label %13

13:                                               ; preds = %34, %2
  %14 = load i32, i32* %5, align 4
  %15 = load i32, i32* %8, align 4
  %16 = icmp slt i32 %14, %15
  br i1 %16, label %17, label %37

17:                                               ; preds = %13
  %18 = load i8*, i8** %3, align 8
  %19 = load i32, i32* %5, align 4
  %20 = sext i32 %19 to i64
  %21 = getelementptr inbounds i8, i8* %18, i64 %20
  %22 = load i8, i8* %21, align 1
  %23 = sext i8 %22 to i32
  %24 = load i8*, i8** %3, align 8
  %25 = load i32, i32* %6, align 4
  %26 = sext i32 %25 to i64
  %27 = getelementptr inbounds i8, i8* %24, i64 %26
  %28 = load i8, i8* %27, align 1
  %29 = sext i8 %28 to i32
  %30 = icmp sgt i32 %23, %29
  br i1 %30, label %31, label %33

31:                                               ; preds = %17
  %32 = load i32, i32* %5, align 4
  store i32 %32, i32* %6, align 4
  br label %33

33:                                               ; preds = %31, %17
  br label %34

34:                                               ; preds = %33
  %35 = load i32, i32* %5, align 4
  %36 = add nsw i32 %35, 1
  store i32 %36, i32* %5, align 4
  br label %13

37:                                               ; preds = %13
  store i32 0, i32* %5, align 4
  br label %38

38:                                               ; preds = %51, %37
  %39 = load i32, i32* %5, align 4
  %40 = load i32, i32* %6, align 4
  %41 = icmp sle i32 %39, %40
  br i1 %41, label %42, label %54

42:                                               ; preds = %38
  %43 = load i8*, i8** %3, align 8
  %44 = load i32, i32* %5, align 4
  %45 = sext i32 %44 to i64
  %46 = getelementptr inbounds i8, i8* %43, i64 %45
  %47 = load i8, i8* %46, align 1
  %48 = load i32, i32* %5, align 4
  %49 = sext i32 %48 to i64
  %50 = getelementptr inbounds [13 x i8], [13 x i8]* %9, i64 0, i64 %49
  store i8 %47, i8* %50, align 1
  br label %51

51:                                               ; preds = %42
  %52 = load i32, i32* %5, align 4
  %53 = add nsw i32 %52, 1
  store i32 %53, i32* %5, align 4
  br label %38

54:                                               ; preds = %38
  store i32 0, i32* %7, align 4
  br label %55

55:                                               ; preds = %69, %54
  %56 = load i32, i32* %7, align 4
  %57 = icmp slt i32 %56, 3
  br i1 %57, label %58, label %72

58:                                               ; preds = %55
  %59 = load i8*, i8** %4, align 8
  %60 = load i32, i32* %7, align 4
  %61 = sext i32 %60 to i64
  %62 = getelementptr inbounds i8, i8* %59, i64 %61
  %63 = load i8, i8* %62, align 1
  %64 = load i32, i32* %5, align 4
  %65 = load i32, i32* %7, align 4
  %66 = add nsw i32 %64, %65
  %67 = sext i32 %66 to i64
  %68 = getelementptr inbounds [13 x i8], [13 x i8]* %9, i64 0, i64 %67
  store i8 %63, i8* %68, align 1
  br label %69

69:                                               ; preds = %58
  %70 = load i32, i32* %7, align 4
  %71 = add nsw i32 %70, 1
  store i32 %71, i32* %7, align 4
  br label %55

72:                                               ; preds = %55
  %73 = load i32, i32* %5, align 4
  store i32 %73, i32* %7, align 4
  br label %74

74:                                               ; preds = %88, %72
  %75 = load i32, i32* %7, align 4
  %76 = load i32, i32* %8, align 4
  %77 = icmp slt i32 %75, %76
  br i1 %77, label %78, label %91

78:                                               ; preds = %74
  %79 = load i8*, i8** %3, align 8
  %80 = load i32, i32* %7, align 4
  %81 = sext i32 %80 to i64
  %82 = getelementptr inbounds i8, i8* %79, i64 %81
  %83 = load i8, i8* %82, align 1
  %84 = load i32, i32* %7, align 4
  %85 = add nsw i32 %84, 3
  %86 = sext i32 %85 to i64
  %87 = getelementptr inbounds [13 x i8], [13 x i8]* %9, i64 0, i64 %86
  store i8 %83, i8* %87, align 1
  br label %88

88:                                               ; preds = %78
  %89 = load i32, i32* %7, align 4
  %90 = add nsw i32 %89, 1
  store i32 %90, i32* %7, align 4
  br label %74

91:                                               ; preds = %74
  %92 = load i32, i32* %7, align 4
  %93 = add nsw i32 %92, 3
  %94 = sext i32 %93 to i64
  %95 = getelementptr inbounds [13 x i8], [13 x i8]* %9, i64 0, i64 %94
  store i8 0, i8* %95, align 1
  %96 = getelementptr inbounds [13 x i8], [13 x i8]* %9, i64 0, i64 0
  %97 = call i32 (i8*, ...) @printf(i8* getelementptr inbounds ([4 x i8], [4 x i8]* @.str, i64 0, i64 0), i8* %96)
  ret void
}

; Function Attrs: nounwind readonly
declare dso_local i64 @strlen(i8*) #1

declare dso_local i32 @printf(i8*, ...) #2

; Function Attrs: noinline nounwind uwtable
define dso_local void @main() #0 {
  %1 = alloca [11 x i8], align 1
  %2 = alloca [4 x i8], align 1
  br label %3

3:                                                ; preds = %8, %0
  %4 = getelementptr inbounds [11 x i8], [11 x i8]* %1, i64 0, i64 0
  %5 = getelementptr inbounds [4 x i8], [4 x i8]* %2, i64 0, i64 0
  %6 = call i32 (i8*, ...) @__isoc99_scanf(i8* getelementptr inbounds ([5 x i8], [5 x i8]* @.str.1, i64 0, i64 0), i8* %4, i8* %5)
  %7 = icmp ne i32 %6, -1
  br i1 %7, label %8, label %11

8:                                                ; preds = %3
  %9 = getelementptr inbounds [11 x i8], [11 x i8]* %1, i64 0, i64 0
  %10 = getelementptr inbounds [4 x i8], [4 x i8]* %2, i64 0, i64 0
  call void @insert(i8* %9, i8* %10)
  br label %3

11:                                               ; preds = %3
  ret void
}

declare dso_local i32 @__isoc99_scanf(i8*, ...) #2


!llvm.module.flags = !{!0}
!llvm.ident = !{!1}

!0 = !{i32 1, !"wchar_size", i32 4}
!1 = !{!"clang version 10.0.0-4ubuntu1 "}
